target datalayout = "e-m:e-p270:32:32-p271:32:32-p272:64:64-i64:64-i128:128-f80:128-n8:16:32:64-S128"
target triple = "x86_64-pc-linux-gnu"

%struct._zend_executor_globals = type { %struct._zval_struct, %struct._zval_struct, [32 x ptr], ptr, ptr, %struct._zend_array, %struct._zend_array, ptr, i32, i8, %struct._zval_struct, i32, ptr, ptr, ptr, ptr, ptr, ptr, i64, ptr, ptr, i32, ptr, i32, i64, i32, i32, i32, i8, i8, %struct.zend_atomic_bool_s, %struct.zend_atomic_bool_s, ptr, i64, ptr, ptr, %struct._zend_array, %struct._zend_array, i32, i8, %struct._zval_struct, %struct._zval_struct, %struct._zend_stack, %struct._zend_stack, %struct._zend_stack, ptr, i32, i32, i64, ptr, ptr, ptr, %struct._zend_objects_store, %struct._zend_lazy_objects_store, ptr, ptr, ptr, [3 x %struct._zend_op], ptr, i8, i8, i64, i32, i32, ptr, [16 x %struct._HashTableIterator], ptr, %union._zend_function, %struct._zend_op, %struct._zend_array, i64, %struct.zend_get_gc_buffer, ptr, ptr, ptr, i64, i8, i32, ptr, ptr, i64, %struct._zend_call_stack, i64, i64, %struct._zend_strtod_state, [6 x ptr] }
%struct.zend_atomic_bool_s = type { i8 }
%struct._zval_struct = type { %union._zend_value, %union.anon, %union.anon.2 }
%union._zend_value = type { i64 }
%union.anon = type { i32 }
%union.anon.2 = type { i32 }
%struct._zend_stack = type { i32, i32, i32, ptr }
%struct._zend_objects_store = type { ptr, i32, i32, i32 }
%struct._zend_lazy_objects_store = type { %struct._zend_array }
%struct._HashTableIterator = type { ptr, i32, i32 }
%union._zend_function = type { %struct._zend_op_array }
%struct._zend_op_array = type { i8, [3 x i8], i32, ptr, ptr, ptr, i32, i32, ptr, ptr, ptr, ptr, i32, ptr, i32, i32, i32, ptr, ptr, ptr, ptr, ptr, i32, i32, ptr, ptr, ptr, i32, i32, i32, i32, ptr, ptr, [6 x ptr] }
%struct._zend_op = type { ptr, %union._znode_op, %union._znode_op, %union._znode_op, i32, i32, i8, i8, i8, i8 }
%union._znode_op = type { i32 }
%struct._zend_array = type { %struct._zend_refcounted_h, %union.anon.4, i32, %union.anon.6, i32, i32, i32, i32, i64, ptr }
%struct._zend_refcounted_h = type { i32, %union.anon.3 }
%union.anon.3 = type { i32 }
%union.anon.4 = type { i32 }
%union.anon.6 = type { ptr }
%struct.zend_get_gc_buffer = type { ptr, ptr, ptr }
%struct._zend_call_stack = type { ptr, i64 }
%struct._zend_strtod_state = type { [8 x ptr], ptr, ptr }
%struct._zend_execute_data = type { ptr, ptr, ptr, ptr, %struct._zval_struct, ptr, ptr, ptr, ptr }
%struct.anon.0 = type { i8, i8, %union.anon.1 }
%union.anon.1 = type { i16 }
%struct._zend_string = type { %struct._zend_refcounted_h, i64, i64, [1 x i8] }
%struct._zend_object = type { %struct._zend_refcounted_h, i32, i32, ptr, ptr, ptr, [1 x %struct._zval_struct] }
%struct._zend_class_entry = type { i8, ptr, %union.anon.8, i32, i32, i32, i32, ptr, ptr, ptr, %struct._zend_array, %struct._zend_array, %struct._zend_array, ptr, ptr, ptr, ptr, ptr, ptr, ptr, ptr, ptr, ptr, ptr, ptr, ptr, ptr, ptr, ptr, ptr, ptr, ptr, %union.anon.9, ptr, ptr, ptr, ptr, i32, i32, i32, i32, %union.anon.10, ptr, ptr, ptr, ptr, i32, ptr, ptr, %union.anon.11 }
%union.anon.8 = type { ptr }
%union.anon.9 = type { ptr }
%union.anon.10 = type { ptr }
%union.anon.11 = type { %struct.anon.12 }
%struct.anon.12 = type { ptr, i32, i32 }
%struct.__va_list_tag = type { i32, i32, ptr, ptr }
%struct.anon.7 = type { i8, [3 x i8], i32, ptr, ptr, ptr, i32, i32, ptr, ptr, ptr, ptr, i32, ptr }

@executor_globals = external global %struct._zend_executor_globals, align 8
@.str.77 = private unnamed_addr constant [39 x i8] c"%s::%s() must be derived from %s::%s()\00", align 1

; Function Attrs: alwaysinline nounwind uwtable
define internal zeroext i1 @instanceof_function(ptr noundef %0, ptr noundef %1) #2 {
  %3 = alloca ptr, align 8
  %4 = alloca ptr, align 8
  store ptr %0, ptr %3, align 8, !tbaa !66
  store ptr %1, ptr %4, align 8, !tbaa !66
  %5 = load ptr, ptr %3, align 8, !tbaa !66
  %6 = load ptr, ptr %4, align 8, !tbaa !66
  %7 = icmp eq ptr %5, %6
  br i1 %7, label %12, label %8

8:                                                ; preds = %2
  %9 = load ptr, ptr %3, align 8, !tbaa !66
  %10 = load ptr, ptr %4, align 8, !tbaa !66
  %11 = call zeroext i1 @instanceof_function_slow(ptr noundef %9, ptr noundef %10)
  br label %12

12:                                               ; preds = %8, %2
  %13 = phi i1 [ true, %2 ], [ %11, %8 ]
  ret i1 %13
}

; Function Attrs: alwaysinline nounwind uwtable
define internal zeroext i8 @zval_get_type(ptr noundef %0) #2 {
  %2 = alloca ptr, align 8
  store ptr %0, ptr %2, align 8, !tbaa !8
  %3 = load ptr, ptr %2, align 8, !tbaa !8
  %4 = getelementptr inbounds nuw %struct._zval_struct, ptr %3, i32 0, i32 1
  %5 = getelementptr inbounds nuw %struct.anon.0, ptr %4, i32 0, i32 0
  %6 = load i8, ptr %5, align 8, !tbaa !44
  ret i8 %6
}

; Function Attrs: nounwind uwtable
define dso_local i32 @zend_parse_method_parameters(i32 noundef %0, ptr noundef %1, ptr noundef %2, ...) #0 {
  %4 = alloca i32, align 4
  %5 = alloca ptr, align 8
  %6 = alloca ptr, align 8
  %7 = alloca [1 x %struct.__va_list_tag], align 16
  %8 = alloca i32, align 4
  %9 = alloca i32, align 4
  %10 = alloca ptr, align 8
  %11 = alloca ptr, align 8
  %12 = alloca ptr, align 8
  %13 = alloca i8, align 1
  store i32 %0, ptr %4, align 4, !tbaa !4
  store ptr %1, ptr %5, align 8, !tbaa !8
  store ptr %2, ptr %6, align 8, !tbaa !47
  call void @llvm.lifetime.start.p0(i64 24, ptr %7) #21
  call void @llvm.lifetime.start.p0(i64 4, ptr %8) #21
  call void @llvm.lifetime.start.p0(i64 4, ptr %9) #21
  store i32 0, ptr %9, align 4, !tbaa !4
  call void @llvm.lifetime.start.p0(i64 8, ptr %10) #21
  %14 = load ptr, ptr %6, align 8, !tbaa !47
  store ptr %14, ptr %10, align 8, !tbaa !47
  call void @llvm.lifetime.start.p0(i64 8, ptr %11) #21
  call void @llvm.lifetime.start.p0(i64 8, ptr %12) #21
  call void @llvm.lifetime.start.p0(i64 1, ptr %13) #21
  %15 = load ptr, ptr getelementptr inbounds nuw (%struct._zend_executor_globals, ptr @executor_globals, i32 0, i32 19), align 8, !tbaa !11
  %16 = getelementptr inbounds nuw %struct._zend_execute_data, ptr %15, i32 0, i32 3
  %17 = load ptr, ptr %16, align 8, !tbaa !82
  %18 = getelementptr inbounds nuw %struct.anon.7, ptr %17, i32 0, i32 4
  %19 = load ptr, ptr %18, align 8, !tbaa !44
  %20 = icmp ne ptr %19, null
  %21 = zext i1 %20 to i8
  store i8 %21, ptr %13, align 1, !tbaa !72
  %22 = load i8, ptr %13, align 1, !tbaa !72, !range !73, !noundef !74
  %23 = trunc i8 %22 to i1
  br i1 %23, label %24, label %32

24:                                               ; preds = %3
  %25 = load ptr, ptr %5, align 8, !tbaa !8
  %26 = icmp ne ptr %25, null
  br i1 %26, label %27, label %32

27:                                               ; preds = %24
  %28 = load ptr, ptr %5, align 8, !tbaa !8
  %29 = call zeroext i8 @zval_get_type(ptr noundef %28)
  %30 = zext i8 %29 to i32
  %31 = icmp ne i32 %30, 8
  br i1 %31, label %32, label %39

32:                                               ; preds = %27, %24, %3
  %33 = getelementptr inbounds [1 x %struct.__va_list_tag], ptr %7, i64 0, i64 0
  call void @llvm.va_start.p0(ptr %33)
  %34 = load i32, ptr %4, align 4, !tbaa !4
  %35 = load ptr, ptr %6, align 8, !tbaa !47
  %36 = load i32, ptr %9, align 4, !tbaa !4
  %37 = call i32 @zend_parse_va_args(i32 noundef %34, ptr noundef %35, ptr noundef %7, i32 noundef %36)
  store i32 %37, ptr %8, align 4, !tbaa !4
  %38 = getelementptr inbounds [1 x %struct.__va_list_tag], ptr %7, i64 0, i64 0
  call void @llvm.va_end.p0(ptr %38)
  br label %110

39:                                               ; preds = %27
  %40 = load ptr, ptr %10, align 8, !tbaa !47
  %41 = getelementptr inbounds nuw i8, ptr %40, i32 1
  store ptr %41, ptr %10, align 8, !tbaa !47
  %42 = getelementptr inbounds [1 x %struct.__va_list_tag], ptr %7, i64 0, i64 0
  call void @llvm.va_start.p0(ptr %42)
  %43 = getelementptr inbounds [1 x %struct.__va_list_tag], ptr %7, i64 0, i64 0
  %44 = getelementptr inbounds nuw %struct.__va_list_tag, ptr %43, i32 0, i32 0
  %45 = load i32, ptr %44, align 16
  %46 = icmp ule i32 %45, 40
  br i1 %46, label %47, label %52

47:                                               ; preds = %39
  %48 = getelementptr inbounds nuw %struct.__va_list_tag, ptr %43, i32 0, i32 3
  %49 = load ptr, ptr %48, align 16
  %50 = getelementptr i8, ptr %49, i32 %45
  %51 = add i32 %45, 8
  store i32 %51, ptr %44, align 16
  br label %56

52:                                               ; preds = %39
  %53 = getelementptr inbounds nuw %struct.__va_list_tag, ptr %43, i32 0, i32 2
  %54 = load ptr, ptr %53, align 8
  %55 = getelementptr i8, ptr %54, i32 8
  store ptr %55, ptr %53, align 8
  br label %56

56:                                               ; preds = %52, %47
  %57 = phi ptr [ %50, %47 ], [ %54, %52 ]
  %58 = load ptr, ptr %57, align 8, !tbaa !90
  store ptr %58, ptr %11, align 8, !tbaa !90
  %59 = getelementptr inbounds [1 x %struct.__va_list_tag], ptr %7, i64 0, i64 0
  %60 = getelementptr inbounds nuw %struct.__va_list_tag, ptr %59, i32 0, i32 0
  %61 = load i32, ptr %60, align 16
  %62 = icmp ule i32 %61, 40
  br i1 %62, label %63, label %68

63:                                               ; preds = %56
  %64 = getelementptr inbounds nuw %struct.__va_list_tag, ptr %59, i32 0, i32 3
  %65 = load ptr, ptr %64, align 16
  %66 = getelementptr i8, ptr %65, i32 %61
  %67 = add i32 %61, 8
  store i32 %67, ptr %60, align 16
  br label %72

68:                                               ; preds = %56
  %69 = getelementptr inbounds nuw %struct.__va_list_tag, ptr %59, i32 0, i32 2
  %70 = load ptr, ptr %69, align 8
  %71 = getelementptr i8, ptr %70, i32 8
  store ptr %71, ptr %69, align 8
  br label %72

72:                                               ; preds = %68, %63
  %73 = phi ptr [ %66, %63 ], [ %70, %68 ]
  %74 = load ptr, ptr %73, align 8, !tbaa !66
  store ptr %74, ptr %12, align 8, !tbaa !66
  %75 = load ptr, ptr %5, align 8, !tbaa !8
  %76 = load ptr, ptr %11, align 8, !tbaa !90
  store ptr %75, ptr %76, align 8, !tbaa !8
  %77 = load ptr, ptr %12, align 8, !tbaa !66
  %78 = icmp ne ptr %77, null
  br i1 %78, label %79, label %104

79:                                               ; preds = %72
  %80 = load ptr, ptr %5, align 8, !tbaa !8
  %81 = getelementptr inbounds nuw %struct._zval_struct, ptr %80, i32 0, i32 0
  %82 = load ptr, ptr %81, align 8, !tbaa !44
  %83 = getelementptr inbounds nuw %struct._zend_object, ptr %82, i32 0, i32 3
  %84 = load ptr, ptr %83, align 8, !tbaa !51
  %85 = load ptr, ptr %12, align 8, !tbaa !66
  %86 = call zeroext i1 @instanceof_function(ptr noundef %84, ptr noundef %85)
  br i1 %86, label %104, label %87

87:                                               ; preds = %79
  %88 = load ptr, ptr %5, align 8, !tbaa !8
  %89 = getelementptr inbounds nuw %struct._zval_struct, ptr %88, i32 0, i32 0
  %90 = load ptr, ptr %89, align 8, !tbaa !44
  %91 = getelementptr inbounds nuw %struct._zend_object, ptr %90, i32 0, i32 3
  %92 = load ptr, ptr %91, align 8, !tbaa !51
  %93 = getelementptr inbounds nuw %struct._zend_class_entry, ptr %92, i32 0, i32 1
  %94 = load ptr, ptr %93, align 8, !tbaa !54
  %95 = getelementptr inbounds nuw %struct._zend_string, ptr %94, i32 0, i32 3
  %96 = getelementptr inbounds [1 x i8], ptr %95, i64 0, i64 0
  %97 = call ptr @get_active_function_name()
  %98 = load ptr, ptr %12, align 8, !tbaa !66
  %99 = getelementptr inbounds nuw %struct._zend_class_entry, ptr %98, i32 0, i32 1
  %100 = load ptr, ptr %99, align 8, !tbaa !54
  %101 = getelementptr inbounds nuw %struct._zend_string, ptr %100, i32 0, i32 3
  %102 = getelementptr inbounds [1 x i8], ptr %101, i64 0, i64 0
  %103 = call ptr @get_active_function_name()
  call void (i32, ptr, ...) @zend_error_noreturn(i32 noundef 16, ptr noundef @.str.77, ptr noundef %96, ptr noundef %97, ptr noundef %102, ptr noundef %103) #23
  unreachable

104:                                              ; preds = %79, %72
  %105 = load i32, ptr %4, align 4, !tbaa !4
  %106 = load ptr, ptr %10, align 8, !tbaa !47
  %107 = load i32, ptr %9, align 4, !tbaa !4
  %108 = call i32 @zend_parse_va_args(i32 noundef %105, ptr noundef %106, ptr noundef %7, i32 noundef %107)
  store i32 %108, ptr %8, align 4, !tbaa !4
  %109 = getelementptr inbounds [1 x %struct.__va_list_tag], ptr %7, i64 0, i64 0
  call void @llvm.va_end.p0(ptr %109)
  br label %110

110:                                              ; preds = %104, %32
  %111 = load i32, ptr %8, align 4, !tbaa !4
  call void @llvm.lifetime.end.p0(i64 1, ptr %13) #21
  call void @llvm.lifetime.end.p0(i64 8, ptr %12) #21
  call void @llvm.lifetime.end.p0(i64 8, ptr %11) #21
  call void @llvm.lifetime.end.p0(i64 8, ptr %10) #21
  call void @llvm.lifetime.end.p0(i64 4, ptr %9) #21
  call void @llvm.lifetime.end.p0(i64 4, ptr %8) #21
  call void @llvm.lifetime.end.p0(i64 24, ptr %7) #21
  ret i32 %111
}