; Function Attrs: nounwind uwtable
define dso_local range(i32 -1, 1) i32 @zend_parse_method_parameters(i32 noundef %0, ptr noundef %1, ptr noundef %2, ...) local_unnamed_addr #2 {
  %4 = alloca [1 x %struct.__va_list_tag], align 16
  call void @llvm.lifetime.start.p0(i64 24, ptr nonnull %4) #34
  %5 = load ptr, ptr getelementptr inbounds nuw (i8, ptr @executor_globals, i64 512), align 8, !tbaa !4
  %6 = getelementptr inbounds nuw i8, ptr %5, i64 24
  %7 = load ptr, ptr %6, align 8, !tbaa !69
  %8 = getelementptr inbounds nuw i8, ptr %7, i64 16
  %9 = load ptr, ptr %8, align 8, !tbaa !42
  %10 = icmp ne ptr %9, null
  %11 = icmp ne ptr %1, null
  %or.cond = and i1 %11, %10
  br i1 %or.cond, label %12, label %15

12:                                               ; preds = %3
  %13 = getelementptr inbounds nuw i8, ptr %1, i64 8
  %14 = load i8, ptr %13, align 8, !tbaa !42
  %.not = icmp eq i8 %14, 8
  br i1 %.not, label %16, label %15

15:                                               ; preds = %12, %3
  call void @llvm.va_start.p0(ptr nonnull %4)
  br label %instanceof_function.exit.thread

16:                                               ; preds = %12
  %17 = getelementptr inbounds nuw i8, ptr %2, i64 1
  call void @llvm.va_start.p0(ptr nonnull %4)
  %18 = load i32, ptr %4, align 16
  %19 = icmp ult i32 %18, 41
  br i1 %19, label %24, label %.thread

.thread:                                          ; preds = %16
  %20 = getelementptr inbounds nuw i8, ptr %4, i64 8
  %21 = load ptr, ptr %20, align 8
  %22 = getelementptr i8, ptr %21, i64 8
  store ptr %22, ptr %20, align 8
  %23 = load ptr, ptr %21, align 8, !tbaa !89
  br label %38

24:                                               ; preds = %16
  %25 = getelementptr inbounds nuw i8, ptr %4, i64 16
  %26 = load ptr, ptr %25, align 16
  %27 = zext nneg i32 %18 to i64
  %28 = getelementptr i8, ptr %26, i64 %27
  %29 = add nuw nsw i32 %18, 8
  store i32 %29, ptr %4, align 16
  %30 = load ptr, ptr %28, align 8, !tbaa !89
  %31 = icmp ult i32 %18, 33
  br i1 %31, label %32, label %38

32:                                               ; preds = %24
  %33 = getelementptr inbounds nuw i8, ptr %4, i64 16
  %34 = load ptr, ptr %33, align 16
  %35 = zext nneg i32 %29 to i64
  %36 = getelementptr i8, ptr %34, i64 %35
  %37 = add nuw nsw i32 %18, 16
  store i32 %37, ptr %4, align 16
  br label %43

38:                                               ; preds = %.thread, %24
  %39 = phi ptr [ %23, %.thread ], [ %30, %24 ]
  %40 = getelementptr inbounds nuw i8, ptr %4, i64 8
  %41 = load ptr, ptr %40, align 8
  %42 = getelementptr i8, ptr %41, i64 8
  store ptr %42, ptr %40, align 8
  br label %43

43:                                               ; preds = %38, %32
  %44 = phi ptr [ %30, %32 ], [ %39, %38 ]
  %45 = phi ptr [ %36, %32 ], [ %41, %38 ]
  %46 = load ptr, ptr %45, align 8, !tbaa !65
  store ptr %1, ptr %44, align 8, !tbaa !77
  %.not23 = icmp eq ptr %46, null
  br i1 %.not23, label %instanceof_function.exit.thread, label %47

47:                                               ; preds = %43
  %48 = load ptr, ptr %1, align 8, !tbaa !42
  %49 = getelementptr inbounds nuw i8, ptr %48, i64 16
  %50 = load ptr, ptr %49, align 8, !tbaa !47
  %51 = icmp eq ptr %50, %46
  br i1 %51, label %instanceof_function.exit.thread, label %instanceof_function.exit

instanceof_function.exit:                         ; preds = %47
  %52 = call zeroext i1 @instanceof_function_slow(ptr noundef %50, ptr noundef nonnull %46) #34
  br i1 %52, label %instanceof_function.exit.thread, label %53

53:                                               ; preds = %instanceof_function.exit
  %54 = load ptr, ptr %1, align 8, !tbaa !42
  %55 = getelementptr inbounds nuw i8, ptr %54, i64 16
  %56 = load ptr, ptr %55, align 8, !tbaa !47
  %57 = getelementptr inbounds nuw i8, ptr %56, i64 8
  %58 = load ptr, ptr %57, align 8, !tbaa !50
  %59 = getelementptr inbounds nuw i8, ptr %58, i64 24
  %60 = call ptr @get_active_function_name() #34
  %61 = getelementptr inbounds nuw i8, ptr %46, i64 8
  %62 = load ptr, ptr %61, align 8, !tbaa !50
  %63 = getelementptr inbounds nuw i8, ptr %62, i64 24
  %64 = call ptr @get_active_function_name() #34
  call void (i32, ptr, ...) @zend_error_noreturn(i32 noundef 16, ptr noundef nonnull @.str.77, ptr noundef nonnull %59, ptr noundef %60, ptr noundef nonnull %63, ptr noundef %64) #36
  unreachable

instanceof_function.exit.thread:                  ; preds = %43, %instanceof_function.exit, %47, %15
  %.sink = phi ptr [ %2, %15 ], [ %17, %47 ], [ %17, %instanceof_function.exit ], [ %17, %43 ]
  %65 = call fastcc i32 @zend_parse_va_args(i32 noundef %0, ptr noundef %.sink, ptr noundef %4, i32 noundef 0)
  call void @llvm.va_end.p0(ptr nonnull %4)
  call void @llvm.lifetime.end.p0(i64 24, ptr nonnull %4) #34
  ret i32 %65
}